target datalayout = "e-m:e-p270:32:32-p271:32:32-p272:64:64-i64:64-i128:128-f80:128-n8:16:32:64-S128"
target triple = "x86_64-pc-linux-gnu"

%struct.Nm_Man_t_ = type { ptr, ptr, i32, i32, i32, i32, ptr }
%struct.Nm_Entry_t_ = type { i32, i32, ptr, ptr, ptr, [0 x i8] }

@.str = private unnamed_addr constant [55 x i8] c"Nm_ManStoreIdName(): Entry with ID %d already exists.\0A\00", align 1
@.str.1 = private unnamed_addr constant [5 x i8] c"%s%s\00", align 1
@.str.2 = private unnamed_addr constant [1 x i8] zeroinitializer, align 1

; Function Attrs: nounwind uwtable
define ptr @Nm_ManStoreIdName(ptr noundef %0, i32 noundef %1, i32 noundef %2, ptr noundef %3, ptr noundef %4) #0 {
  %6 = alloca ptr, align 8
  %7 = alloca ptr, align 8
  %8 = alloca i32, align 4
  %9 = alloca i32, align 4
  %10 = alloca ptr, align 8
  %11 = alloca ptr, align 8
  %12 = alloca ptr, align 8
  %13 = alloca i32, align 4
  %14 = alloca i32, align 4
  %15 = alloca i32, align 4
  store ptr %0, ptr %7, align 8, !tbaa !7
  store i32 %1, ptr %8, align 4, !tbaa !3
  store i32 %2, ptr %9, align 4, !tbaa !3
  store ptr %3, ptr %10, align 8, !tbaa !23
  store ptr %4, ptr %11, align 8, !tbaa !23
  call void @llvm.lifetime.start.p0(i64 8, ptr %12) #9
  call void @llvm.lifetime.start.p0(i64 4, ptr %13) #9
  call void @llvm.lifetime.start.p0(i64 4, ptr %14) #9
  %16 = load ptr, ptr %7, align 8, !tbaa !7
  %17 = load i32, ptr %8, align 4, !tbaa !3
  %18 = call ptr @Nm_ManTableLookupId(ptr noundef %16, i32 noundef %17)
  store ptr %18, ptr %12, align 8, !tbaa !25
  %19 = icmp ne ptr %18, null
  br i1 %19, label %20, label %23

20:                                               ; preds = %5
  %21 = load i32, ptr %8, align 4, !tbaa !3
  %22 = call i32 (ptr, ...) @printf(ptr noundef @.str, i32 noundef %21)
  store ptr null, ptr %6, align 8
  store i32 1, ptr %15, align 4
  br label %85

23:                                               ; preds = %5
  %24 = load ptr, ptr %10, align 8, !tbaa !23
  %25 = call i64 @strlen(ptr noundef %24) #11
  %26 = add i64 32, %25
  %27 = load ptr, ptr %11, align 8, !tbaa !23
  %28 = icmp ne ptr %27, null
  br i1 %28, label %29, label %32

29:                                               ; preds = %23
  %30 = load ptr, ptr %11, align 8, !tbaa !23
  %31 = call i64 @strlen(ptr noundef %30) #11
  br label %33

32:                                               ; preds = %23
  br label %33

33:                                               ; preds = %32, %29
  %34 = phi i64 [ %31, %29 ], [ 0, %32 ]
  %35 = add i64 %26, %34
  %36 = add i64 %35, 1
  %37 = trunc i64 %36 to i32
  store i32 %37, ptr %14, align 4, !tbaa !3
  %38 = load i32, ptr %14, align 4, !tbaa !3
  %39 = sext i32 %38 to i64
  %40 = udiv i64 %39, 8
  %41 = load i32, ptr %14, align 4, !tbaa !3
  %42 = sext i32 %41 to i64
  %43 = urem i64 %42, 8
  %44 = icmp ugt i64 %43, 0
  %45 = zext i1 %44 to i32
  %46 = sext i32 %45 to i64
  %47 = add i64 %40, %46
  %48 = mul i64 %47, 8
  %49 = trunc i64 %48 to i32
  store i32 %49, ptr %14, align 4, !tbaa !3
  %50 = load ptr, ptr %7, align 8, !tbaa !7
  %51 = getelementptr inbounds nuw %struct.Nm_Man_t_, ptr %50, i32 0, i32 6
  %52 = load ptr, ptr %51, align 8, !tbaa !18
  %53 = load i32, ptr %14, align 4, !tbaa !3
  %54 = call ptr @Extra_MmFlexEntryFetch(ptr noundef %52, i32 noundef %53)
  store ptr %54, ptr %12, align 8, !tbaa !25
  %55 = load ptr, ptr %12, align 8, !tbaa !25
  %56 = getelementptr inbounds nuw %struct.Nm_Entry_t_, ptr %55, i32 0, i32 4
  store ptr null, ptr %56, align 8, !tbaa !27
  %57 = load ptr, ptr %12, align 8, !tbaa !25
  %58 = getelementptr inbounds nuw %struct.Nm_Entry_t_, ptr %57, i32 0, i32 3
  store ptr null, ptr %58, align 8, !tbaa !29
  %59 = load ptr, ptr %12, align 8, !tbaa !25
  %60 = getelementptr inbounds nuw %struct.Nm_Entry_t_, ptr %59, i32 0, i32 2
  store ptr null, ptr %60, align 8, !tbaa !30
  %61 = load i32, ptr %8, align 4, !tbaa !3
  %62 = load ptr, ptr %12, align 8, !tbaa !25
  %63 = getelementptr inbounds nuw %struct.Nm_Entry_t_, ptr %62, i32 0, i32 1
  store i32 %61, ptr %63, align 4, !tbaa !31
  %64 = load i32, ptr %9, align 4, !tbaa !3
  %65 = load ptr, ptr %12, align 8, !tbaa !25
  %66 = getelementptr inbounds nuw %struct.Nm_Entry_t_, ptr %65, i32 0, i32 0
  store i32 %64, ptr %66, align 8, !tbaa !32
  %67 = load ptr, ptr %12, align 8, !tbaa !25
  %68 = getelementptr inbounds nuw %struct.Nm_Entry_t_, ptr %67, i32 0, i32 5
  %69 = getelementptr inbounds [0 x i8], ptr %68, i64 0, i64 0
  %70 = load ptr, ptr %10, align 8, !tbaa !23
  %71 = load ptr, ptr %11, align 8, !tbaa !23
  %72 = icmp ne ptr %71, null
  br i1 %72, label %73, label %75

73:                                               ; preds = %33
  %74 = load ptr, ptr %11, align 8, !tbaa !23
  br label %76

75:                                               ; preds = %33
  br label %76

76:                                               ; preds = %75, %73
  %77 = phi ptr [ %74, %73 ], [ @.str.2, %75 ]
  %78 = call i32 (ptr, ptr, ...) @sprintf(ptr noundef %69, ptr noundef @.str.1, ptr noundef %70, ptr noundef %77) #9
  %79 = load ptr, ptr %7, align 8, !tbaa !7
  %80 = load ptr, ptr %12, align 8, !tbaa !25
  %81 = call i32 @Nm_ManTableAdd(ptr noundef %79, ptr noundef %80)
  store i32 %81, ptr %13, align 4, !tbaa !3
  %82 = load ptr, ptr %12, align 8, !tbaa !25
  %83 = getelementptr inbounds nuw %struct.Nm_Entry_t_, ptr %82, i32 0, i32 5
  %84 = getelementptr inbounds [0 x i8], ptr %83, i64 0, i64 0
  store ptr %84, ptr %6, align 8
  store i32 1, ptr %15, align 4
  br label %85

85:                                               ; preds = %76, %20
  call void @llvm.lifetime.end.p0(i64 4, ptr %14) #9
  call void @llvm.lifetime.end.p0(i64 4, ptr %13) #9
  call void @llvm.lifetime.end.p0(i64 8, ptr %12) #9
  %86 = load ptr, ptr %6, align 8
  ret ptr %86
}