; Function Attrs: nounwind uwtable
define noundef ptr @Nm_ManStoreIdName(ptr noundef %0, i32 noundef %1, i32 noundef %2, ptr noundef %3, ptr noundef %4) local_unnamed_addr #0 {
  %6 = tail call ptr @Nm_ManTableLookupId(ptr noundef %0, i32 noundef %1) #10
  %.not = icmp eq ptr %6, null
  br i1 %.not, label %9, label %7

7:                                                ; preds = %5
  %8 = tail call i32 (ptr, ...) @printf(ptr noundef nonnull dereferenceable(1) @.str, i32 noundef %1)
  br label %33

9:                                                ; preds = %5
  %10 = tail call i64 @strlen(ptr noundef nonnull dereferenceable(1) %3) #11
  %11 = add i64 %10, 32
  %.not25 = icmp eq ptr %4, null
  br i1 %.not25, label %14, label %12

12:                                               ; preds = %9
  %13 = tail call i64 @strlen(ptr noundef nonnull dereferenceable(1) %4) #11
  br label %14

14:                                               ; preds = %9, %12
  %15 = phi ptr [ %4, %12 ], [ @.str.2, %9 ]
  %16 = phi i64 [ %13, %12 ], [ 0, %9 ]
  %17 = add i64 %11, %16
  %18 = shl i64 %17, 32
  %sext = add i64 %18, 4294967296
  %19 = lshr exact i64 %sext, 32
  %20 = and i64 %sext, 30064771072
  %.not26 = icmp eq i64 %20, 0
  %21 = select i1 %.not26, i64 0, i64 8
  %22 = add nuw nsw i64 %21, %19
  %23 = trunc i64 %22 to i32
  %24 = and i32 %23, -8
  %25 = getelementptr inbounds nuw i8, ptr %0, i64 32
  %26 = load ptr, ptr %25, align 8, !tbaa !18
  %27 = tail call ptr @Extra_MmFlexEntryFetch(ptr noundef %26, i32 noundef %24) #10
  %28 = getelementptr inbounds nuw i8, ptr %27, i64 8
  %29 = getelementptr inbounds nuw i8, ptr %27, i64 4
  tail call void @llvm.memset.p0.i64(ptr noundef nonnull align 8 dereferenceable(24) %28, i8 0, i64 24, i1 false)
  store i32 %1, ptr %29, align 4, !tbaa !20
  store i32 %2, ptr %27, align 8, !tbaa !23
  %30 = getelementptr inbounds nuw i8, ptr %27, i64 32
  %31 = tail call i32 (ptr, ptr, ...) @sprintf(ptr noundef nonnull dereferenceable(1) %30, ptr noundef nonnull dereferenceable(1) @.str.1, ptr noundef nonnull %3, ptr noundef nonnull %15) #10
  %32 = tail call i32 @Nm_ManTableAdd(ptr noundef %0, ptr noundef nonnull %27) #10
  br label %33

33:                                               ; preds = %14, %7
  %.0 = phi ptr [ null, %7 ], [ %30, %14 ]
  ret ptr %.0
}